; Function Attrs: mustprogress nofree nounwind sspstrong willreturn memory(write, argmem: none, inaccessiblemem: readwrite) uwtable
define dso_local noalias noundef ptr @onig_node_new_list(ptr noundef %0, ptr noundef %1) local_unnamed_addr #13 {
  %3 = tail call noalias noundef dereferenceable_or_null(56) ptr @malloc(i64 noundef 56) #26
  %4 = icmp eq ptr %3, null
  br i1 %4, label %node_new_list.exit, label %5

5:                                                ; preds = %2
  store i32 8, ptr %3, align 1
  %6 = getelementptr inbounds nuw i8, ptr %3, i64 8
  store ptr %0, ptr %6, align 8, !tbaa !13
  %7 = getelementptr inbounds nuw i8, ptr %3, i64 16
  store ptr %1, ptr %7, align 8, !tbaa !13
  br label %node_new_list.exit

node_new_list.exit:                               ; preds = %2, %5
  ret ptr %3
}